; Function Attrs: mustprogress uwtable
define noundef zeroext i1 @_ZN13DecodeAsModel15copyFromProfileE7QStringPPKc(ptr noundef nonnull align 8 dereferenceable(96) %0, ptr noundef nonnull %1, ptr nocapture noundef writeonly %2) local_unnamed_addr #0 align 2 personality ptr @__gxx_personality_v0 {
  %4 = alloca %class.QByteArray, align 8
  %5 = alloca %class.QModelIndex, align 8
  %6 = alloca %class.QModelIndex, align 8
  %7 = alloca %class.QModelIndex, align 8
  %8 = alloca %class.QByteArray, align 8
  call void @_ZN7QString13toUtf8_helperERKS_(ptr dead_on_unwind nonnull writable sret(%class.QByteArray) align 8 %4, ptr noundef nonnull align 8 dereferenceable(24) %1)
  %9 = getelementptr inbounds i8, ptr %4, i64 8
  %10 = load ptr, ptr %9, align 8
  %.not.i.i = icmp eq ptr %10, null
  %spec.select.i.i = select i1 %.not.i.i, ptr @_ZN10QByteArray6_emptyE, ptr %10
  %11 = call noalias ptr @fopen(ptr noundef nonnull %spec.select.i.i, ptr noundef nonnull @.str.26)
  %12 = load ptr, ptr %4, align 8
  %.not.i.i.i = icmp eq ptr %12, null
  br i1 %.not.i.i.i, label %_ZN10QByteArrayD2Ev.exit, label %_ZN17QArrayDataPointerIcE5derefEv.exit.i.i

_ZN17QArrayDataPointerIcE5derefEv.exit.i.i:       ; preds = %3
  %13 = atomicrmw sub ptr %12, i32 1 seq_cst, align 4
  %.not.i.i11 = icmp eq i32 %13, 1
  br i1 %.not.i.i11, label %14, label %_ZN10QByteArrayD2Ev.exit

14:                                               ; preds = %_ZN17QArrayDataPointerIcE5derefEv.exit.i.i
  %15 = load ptr, ptr %4, align 8
  call void @_ZN10QArrayData10deallocateEPS_xx(ptr noundef %15, i64 noundef 1, i64 noundef 8) #19
  br label %_ZN10QByteArrayD2Ev.exit

_ZN10QByteArrayD2Ev.exit:                         ; preds = %3, %_ZN17QArrayDataPointerIcE5derefEv.exit.i.i, %14
  %16 = icmp ne ptr %11, null
  br i1 %16, label %21, label %17

17:                                               ; preds = %_ZN10QByteArrayD2Ev.exit
  %18 = tail call ptr @__errno_location() #24
  %19 = load i32, ptr %18, align 4
  %20 = call ptr @g_strerror(i32 noundef %19) #24
  store ptr %20, ptr %2, align 8
  br label %51

21:                                               ; preds = %_ZN10QByteArrayD2Ev.exit
  store i32 -1, ptr %5, align 8
  %22 = getelementptr inbounds i8, ptr %5, i64 4
  store i32 -1, ptr %22, align 4
  %23 = getelementptr inbounds i8, ptr %5, i64 8
  call void @llvm.memset.p0.i64(ptr noundef nonnull align 8 dereferenceable(16) %23, i8 0, i64 16, i1 false)
  store i32 -1, ptr %6, align 8
  %24 = getelementptr inbounds i8, ptr %6, i64 4
  store i32 -1, ptr %24, align 4
  %25 = getelementptr inbounds i8, ptr %6, i64 8
  call void @llvm.memset.p0.i64(ptr noundef nonnull align 8 dereferenceable(16) %25, i8 0, i64 16, i1 false)
  %26 = load ptr, ptr %0, align 8
  %27 = getelementptr inbounds i8, ptr %26, i64 120
  %28 = load ptr, ptr %27, align 8
  %29 = call noundef i32 %28(ptr noundef nonnull align 8 dereferenceable(96) %0, ptr noundef nonnull align 8 dereferenceable(24) %6)
  store i32 -1, ptr %7, align 8
  %30 = getelementptr inbounds i8, ptr %7, i64 4
  store i32 -1, ptr %30, align 4
  %31 = getelementptr inbounds i8, ptr %7, i64 8
  call void @llvm.memset.p0.i64(ptr noundef nonnull align 8 dereferenceable(16) %31, i8 0, i64 16, i1 false)
  %32 = load ptr, ptr %0, align 8
  %33 = getelementptr inbounds i8, ptr %32, i64 120
  %34 = load ptr, ptr %33, align 8
  %35 = call noundef i32 %34(ptr noundef nonnull align 8 dereferenceable(96) %0, ptr noundef nonnull align 8 dereferenceable(24) %7)
  call void @_ZN18QAbstractItemModel15beginInsertRowsERK11QModelIndexii(ptr noundef nonnull align 8 dereferenceable(16) %0, ptr noundef nonnull align 8 dereferenceable(24) %5, i32 noundef %29, i32 noundef %35)
  call void @_ZN7QString13toUtf8_helperERKS_(ptr dead_on_unwind nonnull writable sret(%class.QByteArray) align 8 %8, ptr noundef nonnull align 8 dereferenceable(24) %1)
  %36 = getelementptr inbounds i8, ptr %8, i64 8
  %37 = load ptr, ptr %36, align 8
  %.not.i.i16 = icmp eq ptr %37, null
  %spec.select.i.i17 = select i1 %.not.i.i16, ptr @_ZN10QByteArray6_emptyE, ptr %37
  %38 = invoke i32 @read_prefs_file(ptr noundef nonnull %spec.select.i.i17, ptr noundef nonnull %11, ptr noundef nonnull @_ZN13DecodeAsModel17readDecodeAsEntryEPcPKcPvi, ptr noundef nonnull %0)
          to label %39 unwind label %45

39:                                               ; preds = %21
  %40 = load ptr, ptr %8, align 8
  %.not.i.i.i18 = icmp eq ptr %40, null
  br i1 %.not.i.i.i18, label %_ZN10QByteArrayD2Ev.exit21, label %_ZN17QArrayDataPointerIcE5derefEv.exit.i.i19

_ZN17QArrayDataPointerIcE5derefEv.exit.i.i19:     ; preds = %39
  %41 = atomicrmw sub ptr %40, i32 1 seq_cst, align 4
  %.not.i.i20 = icmp eq i32 %41, 1
  br i1 %.not.i.i20, label %42, label %_ZN10QByteArrayD2Ev.exit21

42:                                               ; preds = %_ZN17QArrayDataPointerIcE5derefEv.exit.i.i19
  %43 = load ptr, ptr %8, align 8
  call void @_ZN10QArrayData10deallocateEPS_xx(ptr noundef %43, i64 noundef 1, i64 noundef 8) #19
  br label %_ZN10QByteArrayD2Ev.exit21

_ZN10QByteArrayD2Ev.exit21:                       ; preds = %39, %_ZN17QArrayDataPointerIcE5derefEv.exit.i.i19, %42
  call void @_ZN18QAbstractItemModel13endInsertRowsEv(ptr noundef nonnull align 8 dereferenceable(16) %0)
  %44 = call i32 @fclose(ptr noundef nonnull %11)
  br label %51

45:                                               ; preds = %21
  %46 = landingpad { ptr, i32 }
          cleanup
  %47 = load ptr, ptr %8, align 8
  %.not.i.i.i22 = icmp eq ptr %47, null
  br i1 %.not.i.i.i22, label %_ZN10QByteArrayD2Ev.exit25, label %_ZN17QArrayDataPointerIcE5derefEv.exit.i.i23

_ZN17QArrayDataPointerIcE5derefEv.exit.i.i23:     ; preds = %45
  %48 = atomicrmw sub ptr %47, i32 1 seq_cst, align 4
  %.not.i.i24 = icmp eq i32 %48, 1
  br i1 %.not.i.i24, label %49, label %_ZN10QByteArrayD2Ev.exit25

49:                                               ; preds = %_ZN17QArrayDataPointerIcE5derefEv.exit.i.i23
  %50 = load ptr, ptr %8, align 8
  call void @_ZN10QArrayData10deallocateEPS_xx(ptr noundef %50, i64 noundef 1, i64 noundef 8) #19
  br label %_ZN10QByteArrayD2Ev.exit25

51:                                               ; preds = %_ZN10QByteArrayD2Ev.exit21, %17
  ret i1 %16

_ZN10QByteArrayD2Ev.exit25:                       ; preds = %49, %_ZN17QArrayDataPointerIcE5derefEv.exit.i.i23, %45
  resume { ptr, i32 } %46
}